#include <math.h>
#include <stdio.h>
#include <stdlib.h>
#include <string.h>

int main()
{
	int k,m[100],n[100];
	int a[100][10000];
	int i,j,s,sum=0;
	scanf("%d",&k);
	for(i=0;i<k;i++)
	{
		scanf("%d%d",&m[i],&n[i]);
		s=m[i]*n[i];
		for(j=0;j<s;j++)
			scanf("%d",&a[i][j]);
	}
	for(i=0;i<k;i++)
	{
		for(j=0,sum=0;j<m[i]*n[i];j++)
		{
			if(j<n[i])
				sum=sum+a[i][j];
			else if(j%n[i]==0)
				sum=sum+a[i][j];
			else if((j+1)%n[i]==0)
				sum=sum+a[i][j];
			else if(j>m[i]*n[i]-n[i]-1)
				sum=sum+a[i][j];
			else
				continue;
		}
		if(i==0)
			printf("%d",sum);
		else
			printf("\n%d",sum);

	}
	return 0;
}

				



