; ModuleID = '6/2498.c'
source_filename = "6/2498.c"
target datalayout = "e-m:e-p270:32:32-p271:32:32-p272:64:64-i64:64-f80:128-n8:16:32:64-S128"
target triple = "x86_64-pc-linux-gnu"

@.str = private unnamed_addr constant [3 x i8] c"%d\00", align 1
@.str.1 = private unnamed_addr constant [5 x i8] c"%d%d\00", align 1
@.str.2 = private unnamed_addr constant [4 x i8] c"\0A%d\00", align 1

; Function Attrs: noinline nounwind uwtable
define dso_local i32 @main() #0 {
  %1 = alloca i32, align 4
  %2 = alloca i32, align 4
  %3 = alloca [100 x i32], align 16
  %4 = alloca [100 x i32], align 16
  %5 = alloca [100 x [10000 x i32]], align 16
  %6 = alloca i32, align 4
  %7 = alloca i32, align 4
  %8 = alloca i32, align 4
  %9 = alloca i32, align 4
  store i32 0, i32* %1, align 4
  store i32 0, i32* %9, align 4
  %10 = call i32 (i8*, ...) @__isoc99_scanf(i8* getelementptr inbounds ([3 x i8], [3 x i8]* @.str, i64 0, i64 0), i32* %2)
  store i32 0, i32* %6, align 4
  br label %11

11:                                               ; preds = %48, %0
  %12 = load i32, i32* %6, align 4
  %13 = load i32, i32* %2, align 4
  %14 = icmp slt i32 %12, %13
  br i1 %14, label %15, label %51

15:                                               ; preds = %11
  %16 = load i32, i32* %6, align 4
  %17 = sext i32 %16 to i64
  %18 = getelementptr inbounds [100 x i32], [100 x i32]* %3, i64 0, i64 %17
  %19 = load i32, i32* %6, align 4
  %20 = sext i32 %19 to i64
  %21 = getelementptr inbounds [100 x i32], [100 x i32]* %4, i64 0, i64 %20
  %22 = call i32 (i8*, ...) @__isoc99_scanf(i8* getelementptr inbounds ([5 x i8], [5 x i8]* @.str.1, i64 0, i64 0), i32* %18, i32* %21)
  %23 = load i32, i32* %6, align 4
  %24 = sext i32 %23 to i64
  %25 = getelementptr inbounds [100 x i32], [100 x i32]* %3, i64 0, i64 %24
  %26 = load i32, i32* %25, align 4
  %27 = load i32, i32* %6, align 4
  %28 = sext i32 %27 to i64
  %29 = getelementptr inbounds [100 x i32], [100 x i32]* %4, i64 0, i64 %28
  %30 = load i32, i32* %29, align 4
  %31 = mul nsw i32 %26, %30
  store i32 %31, i32* %8, align 4
  store i32 0, i32* %7, align 4
  br label %32

32:                                               ; preds = %44, %15
  %33 = load i32, i32* %7, align 4
  %34 = load i32, i32* %8, align 4
  %35 = icmp slt i32 %33, %34
  br i1 %35, label %36, label %47

36:                                               ; preds = %32
  %37 = load i32, i32* %6, align 4
  %38 = sext i32 %37 to i64
  %39 = getelementptr inbounds [100 x [10000 x i32]], [100 x [10000 x i32]]* %5, i64 0, i64 %38
  %40 = load i32, i32* %7, align 4
  %41 = sext i32 %40 to i64
  %42 = getelementptr inbounds [10000 x i32], [10000 x i32]* %39, i64 0, i64 %41
  %43 = call i32 (i8*, ...) @__isoc99_scanf(i8* getelementptr inbounds ([3 x i8], [3 x i8]* @.str, i64 0, i64 0), i32* %42)
  br label %44

44:                                               ; preds = %36
  %45 = load i32, i32* %7, align 4
  %46 = add nsw i32 %45, 1
  store i32 %46, i32* %7, align 4
  br label %32

47:                                               ; preds = %32
  br label %48

48:                                               ; preds = %47
  %49 = load i32, i32* %6, align 4
  %50 = add nsw i32 %49, 1
  store i32 %50, i32* %6, align 4
  br label %11

51:                                               ; preds = %11
  store i32 0, i32* %6, align 4
  br label %52

52:                                               ; preds = %169, %51
  %53 = load i32, i32* %6, align 4
  %54 = load i32, i32* %2, align 4
  %55 = icmp slt i32 %53, %54
  br i1 %55, label %56, label %172

56:                                               ; preds = %52
  store i32 0, i32* %7, align 4
  store i32 0, i32* %9, align 4
  br label %57

57:                                               ; preds = %156, %56
  %58 = load i32, i32* %7, align 4
  %59 = load i32, i32* %6, align 4
  %60 = sext i32 %59 to i64
  %61 = getelementptr inbounds [100 x i32], [100 x i32]* %3, i64 0, i64 %60
  %62 = load i32, i32* %61, align 4
  %63 = load i32, i32* %6, align 4
  %64 = sext i32 %63 to i64
  %65 = getelementptr inbounds [100 x i32], [100 x i32]* %4, i64 0, i64 %64
  %66 = load i32, i32* %65, align 4
  %67 = mul nsw i32 %62, %66
  %68 = icmp slt i32 %58, %67
  br i1 %68, label %69, label %159

69:                                               ; preds = %57
  %70 = load i32, i32* %7, align 4
  %71 = load i32, i32* %6, align 4
  %72 = sext i32 %71 to i64
  %73 = getelementptr inbounds [100 x i32], [100 x i32]* %4, i64 0, i64 %72
  %74 = load i32, i32* %73, align 4
  %75 = icmp slt i32 %70, %74
  br i1 %75, label %76, label %86

76:                                               ; preds = %69
  %77 = load i32, i32* %9, align 4
  %78 = load i32, i32* %6, align 4
  %79 = sext i32 %78 to i64
  %80 = getelementptr inbounds [100 x [10000 x i32]], [100 x [10000 x i32]]* %5, i64 0, i64 %79
  %81 = load i32, i32* %7, align 4
  %82 = sext i32 %81 to i64
  %83 = getelementptr inbounds [10000 x i32], [10000 x i32]* %80, i64 0, i64 %82
  %84 = load i32, i32* %83, align 4
  %85 = add nsw i32 %77, %84
  store i32 %85, i32* %9, align 4
  br label %155

86:                                               ; preds = %69
  %87 = load i32, i32* %7, align 4
  %88 = load i32, i32* %6, align 4
  %89 = sext i32 %88 to i64
  %90 = getelementptr inbounds [100 x i32], [100 x i32]* %4, i64 0, i64 %89
  %91 = load i32, i32* %90, align 4
  %92 = srem i32 %87, %91
  %93 = icmp eq i32 %92, 0
  br i1 %93, label %94, label %104

94:                                               ; preds = %86
  %95 = load i32, i32* %9, align 4
  %96 = load i32, i32* %6, align 4
  %97 = sext i32 %96 to i64
  %98 = getelementptr inbounds [100 x [10000 x i32]], [100 x [10000 x i32]]* %5, i64 0, i64 %97
  %99 = load i32, i32* %7, align 4
  %100 = sext i32 %99 to i64
  %101 = getelementptr inbounds [10000 x i32], [10000 x i32]* %98, i64 0, i64 %100
  %102 = load i32, i32* %101, align 4
  %103 = add nsw i32 %95, %102
  store i32 %103, i32* %9, align 4
  br label %154

104:                                              ; preds = %86
  %105 = load i32, i32* %7, align 4
  %106 = add nsw i32 %105, 1
  %107 = load i32, i32* %6, align 4
  %108 = sext i32 %107 to i64
  %109 = getelementptr inbounds [100 x i32], [100 x i32]* %4, i64 0, i64 %108
  %110 = load i32, i32* %109, align 4
  %111 = srem i32 %106, %110
  %112 = icmp eq i32 %111, 0
  br i1 %112, label %113, label %123

113:                                              ; preds = %104
  %114 = load i32, i32* %9, align 4
  %115 = load i32, i32* %6, align 4
  %116 = sext i32 %115 to i64
  %117 = getelementptr inbounds [100 x [10000 x i32]], [100 x [10000 x i32]]* %5, i64 0, i64 %116
  %118 = load i32, i32* %7, align 4
  %119 = sext i32 %118 to i64
  %120 = getelementptr inbounds [10000 x i32], [10000 x i32]* %117, i64 0, i64 %119
  %121 = load i32, i32* %120, align 4
  %122 = add nsw i32 %114, %121
  store i32 %122, i32* %9, align 4
  br label %153

123:                                              ; preds = %104
  %124 = load i32, i32* %7, align 4
  %125 = load i32, i32* %6, align 4
  %126 = sext i32 %125 to i64
  %127 = getelementptr inbounds [100 x i32], [100 x i32]* %3, i64 0, i64 %126
  %128 = load i32, i32* %127, align 4
  %129 = load i32, i32* %6, align 4
  %130 = sext i32 %129 to i64
  %131 = getelementptr inbounds [100 x i32], [100 x i32]* %4, i64 0, i64 %130
  %132 = load i32, i32* %131, align 4
  %133 = mul nsw i32 %128, %132
  %134 = load i32, i32* %6, align 4
  %135 = sext i32 %134 to i64
  %136 = getelementptr inbounds [100 x i32], [100 x i32]* %4, i64 0, i64 %135
  %137 = load i32, i32* %136, align 4
  %138 = sub nsw i32 %133, %137
  %139 = sub nsw i32 %138, 1
  %140 = icmp sgt i32 %124, %139
  br i1 %140, label %141, label %151

141:                                              ; preds = %123
  %142 = load i32, i32* %9, align 4
  %143 = load i32, i32* %6, align 4
  %144 = sext i32 %143 to i64
  %145 = getelementptr inbounds [100 x [10000 x i32]], [100 x [10000 x i32]]* %5, i64 0, i64 %144
  %146 = load i32, i32* %7, align 4
  %147 = sext i32 %146 to i64
  %148 = getelementptr inbounds [10000 x i32], [10000 x i32]* %145, i64 0, i64 %147
  %149 = load i32, i32* %148, align 4
  %150 = add nsw i32 %142, %149
  store i32 %150, i32* %9, align 4
  br label %152

151:                                              ; preds = %123
  br label %156

152:                                              ; preds = %141
  br label %153

153:                                              ; preds = %152, %113
  br label %154

154:                                              ; preds = %153, %94
  br label %155

155:                                              ; preds = %154, %76
  br label %156

156:                                              ; preds = %155, %151
  %157 = load i32, i32* %7, align 4
  %158 = add nsw i32 %157, 1
  store i32 %158, i32* %7, align 4
  br label %57

159:                                              ; preds = %57
  %160 = load i32, i32* %6, align 4
  %161 = icmp eq i32 %160, 0
  br i1 %161, label %162, label %165

162:                                              ; preds = %159
  %163 = load i32, i32* %9, align 4
  %164 = call i32 (i8*, ...) @printf(i8* getelementptr inbounds ([3 x i8], [3 x i8]* @.str, i64 0, i64 0), i32 %163)
  br label %168

165:                                              ; preds = %159
  %166 = load i32, i32* %9, align 4
  %167 = call i32 (i8*, ...) @printf(i8* getelementptr inbounds ([4 x i8], [4 x i8]* @.str.2, i64 0, i64 0), i32 %166)
  br label %168

168:                                              ; preds = %165, %162
  br label %169

169:                                              ; preds = %168
  %170 = load i32, i32* %6, align 4
  %171 = add nsw i32 %170, 1
  store i32 %171, i32* %6, align 4
  br label %52

172:                                              ; preds = %52
  ret i32 0
}

declare dso_local i32 @__isoc99_scanf(i8*, ...) #1

declare dso_local i32 @printf(i8*, ...) #1


!llvm.module.flags = !{!0}
!llvm.ident = !{!1}

!0 = !{i32 1, !"wchar_size", i32 4}
!1 = !{!"clang version 10.0.0-4ubuntu1 "}
